; ModuleID = '62/1414.c'
source_filename = "62/1414.c"
target datalayout = "e-m:e-p270:32:32-p271:32:32-p272:64:64-i64:64-f80:128-n8:16:32:64-S128"
target triple = "x86_64-pc-linux-gnu"

; Function Attrs: noinline nounwind uwtable
define dso_local void @main() #0 {
  %1 = alloca i32, align 4
  %2 = alloca i32, align 4
  %3 = alloca i32, align 4
  %4 = alloca i32, align 4
  %5 = alloca i8*, align 8
  %6 = alloca i8*, align 8
  store i32 0, i32* %3, align 4
  %7 = call noalias i8* @calloc(i64 10000, i64 1) #4
  store i8* %7, i8** %6, align 8
  %8 = load i8*, i8** %6, align 8
  store i8* %8, i8** %5, align 8
  %9 = load i8*, i8** %5, align 8
  %10 = call i32 (i8*, ...) bitcast (i32 (...)* @gets to i32 (i8*, ...)*)(i8* %9)
  %11 = load i8*, i8** %5, align 8
  %12 = call i64 @strlen(i8* %11) #5
  %13 = trunc i64 %12 to i32
  store i32 %13, i32* %2, align 4
  store i32 0, i32* %1, align 4
  br label %14

14:                                               ; preds = %75, %0
  %15 = load i32, i32* %1, align 4
  %16 = load i32, i32* %2, align 4
  %17 = icmp slt i32 %15, %16
  br i1 %17, label %18, label %78

18:                                               ; preds = %14
  %19 = load i8*, i8** %5, align 8
  %20 = load i32, i32* %1, align 4
  %21 = sext i32 %20 to i64
  %22 = getelementptr inbounds i8, i8* %19, i64 %21
  %23 = load i8, i8* %22, align 1
  %24 = sext i8 %23 to i32
  %25 = icmp eq i32 %24, 32
  br i1 %25, label %26, label %30

26:                                               ; preds = %18
  %27 = load i32, i32* %3, align 4
  %28 = icmp eq i32 %27, 0
  br i1 %28, label %29, label %30

29:                                               ; preds = %26
  store i32 1, i32* %3, align 4
  br label %74

30:                                               ; preds = %26, %18
  %31 = load i8*, i8** %5, align 8
  %32 = load i32, i32* %1, align 4
  %33 = sext i32 %32 to i64
  %34 = getelementptr inbounds i8, i8* %31, i64 %33
  %35 = load i8, i8* %34, align 1
  %36 = sext i8 %35 to i32
  %37 = icmp eq i32 %36, 32
  br i1 %37, label %38, label %72

38:                                               ; preds = %30
  %39 = load i32, i32* %3, align 4
  %40 = icmp eq i32 %39, 1
  br i1 %40, label %41, label %72

41:                                               ; preds = %38
  %42 = load i32, i32* %1, align 4
  store i32 %42, i32* %4, align 4
  br label %43

43:                                               ; preds = %59, %41
  %44 = load i32, i32* %4, align 4
  %45 = load i32, i32* %2, align 4
  %46 = sub nsw i32 %45, 1
  %47 = icmp slt i32 %44, %46
  br i1 %47, label %48, label %62

48:                                               ; preds = %43
  %49 = load i8*, i8** %5, align 8
  %50 = load i32, i32* %4, align 4
  %51 = sext i32 %50 to i64
  %52 = getelementptr inbounds i8, i8* %49, i64 %51
  %53 = getelementptr inbounds i8, i8* %52, i64 1
  %54 = load i8, i8* %53, align 1
  %55 = load i8*, i8** %5, align 8
  %56 = load i32, i32* %4, align 4
  %57 = sext i32 %56 to i64
  %58 = getelementptr inbounds i8, i8* %55, i64 %57
  store i8 %54, i8* %58, align 1
  br label %59

59:                                               ; preds = %48
  %60 = load i32, i32* %4, align 4
  %61 = add nsw i32 %60, 1
  store i32 %61, i32* %4, align 4
  br label %43

62:                                               ; preds = %43
  %63 = load i8*, i8** %5, align 8
  %64 = load i32, i32* %2, align 4
  %65 = sext i32 %64 to i64
  %66 = getelementptr inbounds i8, i8* %63, i64 %65
  %67 = getelementptr inbounds i8, i8* %66, i64 -1
  store i8 0, i8* %67, align 1
  %68 = load i32, i32* %1, align 4
  %69 = add nsw i32 %68, -1
  store i32 %69, i32* %1, align 4
  %70 = load i32, i32* %2, align 4
  %71 = add nsw i32 %70, -1
  store i32 %71, i32* %2, align 4
  br label %73

72:                                               ; preds = %38, %30
  store i32 0, i32* %3, align 4
  br label %73

73:                                               ; preds = %72, %62
  br label %74

74:                                               ; preds = %73, %29
  br label %75

75:                                               ; preds = %74
  %76 = load i32, i32* %1, align 4
  %77 = add nsw i32 %76, 1
  store i32 %77, i32* %1, align 4
  br label %14

78:                                               ; preds = %14
  %79 = load i8*, i8** %5, align 8
  %80 = call i32 @puts(i8* %79)
  ret void
}

; Function Attrs: nounwind
declare dso_local noalias i8* @calloc(i64, i64) #1

declare dso_local i32 @gets(...) #2

; Function Attrs: nounwind readonly
declare dso_local i64 @strlen(i8*) #3

declare dso_local i32 @puts(i8*) #2


!llvm.module.flags = !{!0}
!llvm.ident = !{!1}

!0 = !{i32 1, !"wchar_size", i32 4}
!1 = !{!"clang version 10.0.0-4ubuntu1 "}
